(lp0
(i__main__
Contact
p1
(dp2
S'date'
p3
cdatetime
date
p4
(S'\x07\xe4\x07\x14'
p5
tp6
Rp7
sS'email'
p8
S'feisal@gmail.com'
p9
sS'phoneNumber'
p10
I2540708897463
sS'name'
p11
S'feisal'
p12
sS'location'
p13
S'wajir'
p14
sba(i__main__
Contact
p15
(dp16
g3
g4
(S'\x07\xe4\x07\x14'
p17
tp18
Rp19
sg8
g9
sg10
I2540708897463
sg11
S'feis'
p20
sg13
S'mandera'
p21
sba(i__main__
Contact
p22
(dp23
g3
g4
(S'\x07\xe4\x07\x14'
p24
tp25
Rp26
sg8
g9
sg10
I2540708897463
sg11
S'fsal'
p27
sg13
S'garisa'
p28
sba.